target datalayout = "e-m:e-p270:32:32-p271:32:32-p272:64:64-i64:64-i128:128-f80:128-n8:16:32:64-S128"
target triple = "x86_64-pc-linux-gnu"

%struct.yy_buffer_state = type { ptr, ptr, ptr, i32, i32, i32, i32, i32, i32, i32, i32, i32 }

@.str.5 = private unnamed_addr constant [41 x i8] c"out of dynamic memory in yy_scan_bytes()\00", align 1
@.str.6 = private unnamed_addr constant [30 x i8] c"bad buffer in yy_scan_bytes()\00", align 1

; Function Attrs: null_pointer_is_valid sspstrong uwtable
define hidden ptr @k12text__scan_bytes(ptr noundef %0, i32 noundef %1, ptr noundef %2) #0 {
  %4 = alloca ptr, align 8
  %5 = alloca i32, align 4
  %6 = alloca ptr, align 8
  %7 = alloca ptr, align 8
  %8 = alloca ptr, align 8
  %9 = alloca i64, align 8
  %10 = alloca i32, align 4
  store ptr %0, ptr %4, align 8
  store i32 %1, ptr %5, align 4
  store ptr %2, ptr %6, align 8
  call void @llvm.lifetime.start.p0(i64 8, ptr %7) #16
  call void @llvm.lifetime.start.p0(i64 8, ptr %8) #16
  call void @llvm.lifetime.start.p0(i64 8, ptr %9) #16
  call void @llvm.lifetime.start.p0(i64 4, ptr %10) #16
  %11 = load i32, ptr %5, align 4
  %12 = add i32 %11, 2
  %13 = sext i32 %12 to i64
  store i64 %13, ptr %9, align 8
  %14 = load i64, ptr %9, align 8
  %15 = call noalias ptr @malloc(i64 noundef %14) #18
  store ptr %15, ptr %8, align 8
  %16 = load ptr, ptr %8, align 8
  %17 = icmp ne ptr %16, null
  br i1 %17, label %20, label %18

18:                                               ; preds = %3
  %19 = load ptr, ptr %6, align 8
  call void @yy_fatal_error(ptr noundef @.str.5, ptr noundef %19) #17
  unreachable

20:                                               ; preds = %3
  store i32 0, ptr %10, align 4
  br label %21

21:                                               ; preds = %35, %20
  %22 = load i32, ptr %10, align 4
  %23 = load i32, ptr %5, align 4
  %24 = icmp slt i32 %22, %23
  br i1 %24, label %25, label %38

25:                                               ; preds = %21
  %26 = load ptr, ptr %4, align 8
  %27 = load i32, ptr %10, align 4
  %28 = sext i32 %27 to i64
  %29 = getelementptr i8, ptr %26, i64 %28
  %30 = load i8, ptr %29, align 1
  %31 = load ptr, ptr %8, align 8
  %32 = load i32, ptr %10, align 4
  %33 = sext i32 %32 to i64
  %34 = getelementptr i8, ptr %31, i64 %33
  store i8 %30, ptr %34, align 1
  br label %35

35:                                               ; preds = %25
  %36 = load i32, ptr %10, align 4
  %37 = add i32 %36, 1
  store i32 %37, ptr %10, align 4
  br label %21, !llvm.loop !14

38:                                               ; preds = %21
  %39 = load ptr, ptr %8, align 8
  %40 = load i32, ptr %5, align 4
  %41 = add i32 %40, 1
  %42 = sext i32 %41 to i64
  %43 = getelementptr i8, ptr %39, i64 %42
  store i8 0, ptr %43, align 1
  %44 = load ptr, ptr %8, align 8
  %45 = load i32, ptr %5, align 4
  %46 = sext i32 %45 to i64
  %47 = getelementptr i8, ptr %44, i64 %46
  store i8 0, ptr %47, align 1
  %48 = load ptr, ptr %8, align 8
  %49 = load i64, ptr %9, align 8
  %50 = load ptr, ptr %6, align 8
  %51 = call ptr @k12text__scan_buffer(ptr noundef %48, i64 noundef %49, ptr noundef %50)
  store ptr %51, ptr %7, align 8
  %52 = load ptr, ptr %7, align 8
  %53 = icmp ne ptr %52, null
  br i1 %53, label %56, label %54

54:                                               ; preds = %38
  %55 = load ptr, ptr %6, align 8
  call void @yy_fatal_error(ptr noundef @.str.6, ptr noundef %55) #17
  unreachable

56:                                               ; preds = %38
  %57 = load ptr, ptr %7, align 8
  %58 = getelementptr inbounds nuw %struct.yy_buffer_state, ptr %57, i32 0, i32 5
  store i32 1, ptr %58, align 8
  %59 = load ptr, ptr %7, align 8
  call void @llvm.lifetime.end.p0(i64 4, ptr %10) #16
  call void @llvm.lifetime.end.p0(i64 8, ptr %9) #16
  call void @llvm.lifetime.end.p0(i64 8, ptr %8) #16
  call void @llvm.lifetime.end.p0(i64 8, ptr %7) #16
  ret ptr %59
}

; Function Attrs: null_pointer_is_valid sspstrong uwtable
define hidden ptr @k12text__scan_string(ptr noundef %0, ptr noundef %1) #0 {
  %3 = alloca ptr, align 8
  %4 = alloca ptr, align 8
  store ptr %0, ptr %3, align 8
  store ptr %1, ptr %4, align 8
  %5 = load ptr, ptr %3, align 8
  %6 = load ptr, ptr %3, align 8
  %7 = call i64 @strlen(ptr noundef %6) #22
  %8 = trunc i64 %7 to i32
  %9 = load ptr, ptr %4, align 8
  %10 = call ptr @k12text__scan_bytes(ptr noundef %5, i32 noundef %8, ptr noundef %9)
  ret ptr %10
}